; Function Attrs: mustprogress nofree nounwind willreturn memory(read, inaccessiblemem: none) uwtable
define hidden noundef zeroext i1 @_Z21is_smt2_quoted_symbolRK6symbol(ptr noundef nonnull readonly align 8 captures(none) dereferenceable(8) %0) local_unnamed_addr #7 {
  %2 = load ptr, ptr %0, align 8, !tbaa !9
  %3 = ptrtoint ptr %2 to i64
  %4 = and i64 %3, 7
  %5 = icmp eq i64 %4, 1
  br i1 %5, label %8, label %6

6:                                                ; preds = %1
  %7 = tail call noundef zeroext i1 @_Z21is_smt2_quoted_symbolPKc(ptr noundef %2)
  br label %8

8:                                                ; preds = %1, %6
  %.0 = phi i1 [ %7, %6 ], [ false, %1 ]
  ret i1 %.0
}